target datalayout = "e-m:e-p270:32:32-p271:32:32-p272:64:64-i64:64-i128:128-f80:128-n8:16:32:64-S128"
target triple = "x86_64-pc-linux-gnu"

%struct.libraw_tiff_tag = type { i16, i16, i32, %union.anon }
%union.anon = type { i32 }
%struct.tiff_hdr = type { i16, i16, i32, i16, i16, [23 x %struct.libraw_tiff_tag], i32, i16, i16, [4 x %struct.libraw_tiff_tag], i16, i16, [10 x %struct.libraw_tiff_tag], [4 x i16], [10 x i32], [26 x i32], [512 x i8], [64 x i8], [64 x i8], [32 x i8], [20 x i8], [64 x i8] }

@.str.3 = private unnamed_addr constant [5 x i8] c"Exif\00", align 1
@.str.4 = private unnamed_addr constant [11 x i8] c"\FF\E1  Exif\00\00\00", align 1

; Function Attrs: inlinehint mustprogress nounwind uwtable
define internal noundef zeroext i16 @_ZL10__bswap_16t(i16 noundef zeroext %0) #5 {
  %2 = alloca i16, align 2
  store i16 %0, ptr %2, align 2, !tbaa !79
  %3 = load i16, ptr %2, align 2, !tbaa !79
  %4 = zext i16 %3 to i32
  %5 = ashr i32 %4, 8
  %6 = and i32 %5, 255
  %7 = load i16, ptr %2, align 2, !tbaa !79
  %8 = zext i16 %7 to i32
  %9 = and i32 %8, 255
  %10 = shl i32 %9, 8
  %11 = or i32 %6, %10
  %12 = trunc i32 %11 to i16
  ret i16 %12
}

; Function Attrs: mustprogress uwtable
define void @_ZN6LibRaw17jpeg_thumb_writerEP8_IO_FILEPci(ptr noundef nonnull align 8 dereferenceable(767680) %0, ptr noundef %1, ptr noundef %2, i32 noundef %3) #1 align 2 {
  %5 = alloca ptr, align 8
  %6 = alloca ptr, align 8
  %7 = alloca ptr, align 8
  %8 = alloca i32, align 4
  %9 = alloca [5 x i16], align 2
  %10 = alloca %struct.tiff_hdr, align 4
  store ptr %0, ptr %5, align 8, !tbaa !6
  store ptr %1, ptr %6, align 8, !tbaa !116
  store ptr %2, ptr %7, align 8, !tbaa !117
  store i32 %3, ptr %8, align 4, !tbaa !11
  %11 = load ptr, ptr %5, align 8
  call void @llvm.lifetime.start.p0(i64 10, ptr %9) #15
  call void @llvm.lifetime.start.p0(i64 1376, ptr %10) #15
  %12 = load ptr, ptr %6, align 8, !tbaa !116
  %13 = call i32 @fputc(i32 noundef 255, ptr noundef %12)
  %14 = load ptr, ptr %6, align 8, !tbaa !116
  %15 = call i32 @fputc(i32 noundef 216, ptr noundef %14)
  %16 = load ptr, ptr %7, align 8, !tbaa !117
  %17 = getelementptr inbounds i8, ptr %16, i64 6
  %18 = call i32 @strcmp(ptr noundef %17, ptr noundef @.str.3) #16
  %19 = icmp ne i32 %18, 0
  br i1 %19, label %20, label %29

20:                                               ; preds = %4
  %21 = getelementptr inbounds [5 x i16], ptr %9, i64 0, i64 0
  call void @llvm.memcpy.p0.p0.i64(ptr align 2 %21, ptr align 1 @.str.4, i64 10, i1 false)
  %22 = call noundef zeroext i16 @_ZL10__bswap_16t(i16 noundef zeroext 1384)
  %23 = getelementptr inbounds [5 x i16], ptr %9, i64 0, i64 1
  store i16 %22, ptr %23, align 2, !tbaa !79
  %24 = getelementptr inbounds [5 x i16], ptr %9, i64 0, i64 0
  %25 = load ptr, ptr %6, align 8, !tbaa !116
  %26 = call i64 @fwrite(ptr noundef %24, i64 noundef 1, i64 noundef 10, ptr noundef %25)
  call void @_ZN6LibRaw9tiff_headEP8tiff_hdri(ptr noundef nonnull align 8 dereferenceable(767680) %11, ptr noundef %10, i32 noundef 0)
  %27 = load ptr, ptr %6, align 8, !tbaa !116
  %28 = call i64 @fwrite(ptr noundef %10, i64 noundef 1, i64 noundef 1376, ptr noundef %27)
  br label %29

29:                                               ; preds = %20, %4
  %30 = load ptr, ptr %7, align 8, !tbaa !117
  %31 = getelementptr inbounds i8, ptr %30, i64 2
  %32 = load i32, ptr %8, align 4, !tbaa !11
  %33 = sub nsw i32 %32, 2
  %34 = sext i32 %33 to i64
  %35 = load ptr, ptr %6, align 8, !tbaa !116
  %36 = call i64 @fwrite(ptr noundef %31, i64 noundef 1, i64 noundef %34, ptr noundef %35)
  call void @llvm.lifetime.end.p0(i64 1376, ptr %10) #15
  call void @llvm.lifetime.end.p0(i64 10, ptr %9) #15
  ret void
}