; Function Attrs: mustprogress uwtable
define void @_ZN6LibRaw17jpeg_thumb_writerEP8_IO_FILEPci(ptr noundef nonnull align 8 dereferenceable(767680) %0, ptr noundef captures(none) %1, ptr noundef captures(none) %2, i32 noundef %3) local_unnamed_addr #1 align 2 {
  %5 = alloca [5 x i16], align 2
  %6 = alloca %struct.tiff_hdr, align 4
  call void @llvm.lifetime.start.p0(i64 10, ptr nonnull %5) #17
  call void @llvm.lifetime.start.p0(i64 1376, ptr nonnull %6) #17
  %7 = tail call i32 @fputc(i32 noundef 255, ptr noundef %1)
  %8 = tail call i32 @fputc(i32 noundef 216, ptr noundef %1)
  %9 = getelementptr inbounds nuw i8, ptr %2, i64 6
  %10 = tail call i32 @strcmp(ptr noundef nonnull dereferenceable(1) %9, ptr noundef nonnull dereferenceable(5) @.str.3) #18
  %.not = icmp eq i32 %10, 0
  br i1 %.not, label %15, label %11

11:                                               ; preds = %4
  call void @llvm.memcpy.p0.p0.i64(ptr noundef nonnull align 2 dereferenceable(10) %5, ptr noundef nonnull align 1 dereferenceable(10) @.str.4, i64 10, i1 false)
  %12 = getelementptr inbounds nuw i8, ptr %5, i64 2
  store i16 26629, ptr %12, align 2, !tbaa !71
  %13 = call i64 @fwrite(ptr noundef nonnull %5, i64 noundef 1, i64 noundef 10, ptr noundef %1)
  call void @_ZN6LibRaw9tiff_headEP8tiff_hdri(ptr noundef nonnull align 8 dereferenceable(767680) %0, ptr noundef nonnull %6, i32 noundef 0)
  %14 = call i64 @fwrite(ptr noundef nonnull %6, i64 noundef 1, i64 noundef 1376, ptr noundef %1)
  br label %15

15:                                               ; preds = %11, %4
  %16 = getelementptr inbounds nuw i8, ptr %2, i64 2
  %17 = add nsw i32 %3, -2
  %18 = sext i32 %17 to i64
  %19 = call i64 @fwrite(ptr noundef nonnull %16, i64 noundef 1, i64 noundef %18, ptr noundef %1)
  call void @llvm.lifetime.end.p0(i64 1376, ptr nonnull %6) #17
  call void @llvm.lifetime.end.p0(i64 10, ptr nonnull %5) #17
  ret void
}